target datalayout = "e-m:e-p270:32:32-p271:32:32-p272:64:64-i64:64-i128:128-f80:128-n8:16:32:64-S128"
target triple = "x86_64-pc-linux-gnu"

%struct.rb_data_type_struct = type { ptr, %struct.anon.4, ptr, ptr, i64 }
%struct.anon.4 = type { ptr, ptr, ptr, ptr, [1 x ptr] }
%struct.sockaddr = type { i16, [14 x i8] }
%struct.rb_addrinfo_t = type { i64, i64, i32, i32, i32, i32, %union.union_sockaddr }
%union.union_sockaddr = type { %struct.sockaddr_storage, [1920 x i8] }
%struct.sockaddr_storage = type { i16, [118 x i8], i64 }

@rb_eSocket = external global i64, align 8
@addrinfo_type = internal constant %struct.rb_data_type_struct { ptr @.str.102, %struct.anon.4 { ptr @addrinfo_mark, ptr inttoptr (i64 -1 to ptr), ptr @addrinfo_memsize, ptr null, [1 x ptr] zeroinitializer }, ptr null, ptr null, i64 0 }, align 8
@rb_eTypeError = external global i64, align 8
@.str.101 = private unnamed_addr constant [29 x i8] c"uninitialized socket address\00", align 1
@.str.121 = private unnamed_addr constant [26 x i8] c"need IPv4 or IPv6 address\00", align 1

; Function Attrs: inlinehint nounwind sspstrong willreturn memory(none) uwtable
define internal i64 @RB_INT2FIX(i64 noundef %0) #6 {
  %2 = alloca i64, align 8
  %3 = alloca i64, align 8
  %4 = alloca i64, align 8
  %5 = alloca i64, align 8
  %6 = alloca i64, align 8
  %7 = alloca i64, align 8
  store i64 %0, ptr %2, align 8, !tbaa !31
  call void @llvm.lifetime.start.p0(i64 8, ptr %3) #24
  %8 = load i64, ptr %2, align 8, !tbaa !31
  store i64 %8, ptr %3, align 8, !tbaa !31
  call void @llvm.lifetime.start.p0(i64 8, ptr %4) #24
  %9 = load i64, ptr %3, align 8, !tbaa !31
  %10 = shl i64 %9, 1
  %11 = add i64 %10, 1
  store i64 %11, ptr %4, align 8, !tbaa !31
  call void @llvm.lifetime.start.p0(i64 8, ptr %5) #24
  %12 = load i64, ptr %4, align 8, !tbaa !31
  store i64 %12, ptr %5, align 8, !tbaa !31
  call void @llvm.lifetime.start.p0(i64 8, ptr %6) #24
  %13 = load i64, ptr %5, align 8, !tbaa !31
  store i64 %13, ptr %6, align 8, !tbaa !31
  call void @llvm.lifetime.start.p0(i64 8, ptr %7) #24
  %14 = load i64, ptr %6, align 8, !tbaa !31
  store i64 %14, ptr %7, align 8, !tbaa !31
  %15 = load i64, ptr %7, align 8, !tbaa !31
  call void @llvm.lifetime.end.p0(i64 8, ptr %7) #24
  call void @llvm.lifetime.end.p0(i64 8, ptr %6) #24
  call void @llvm.lifetime.end.p0(i64 8, ptr %5) #24
  call void @llvm.lifetime.end.p0(i64 8, ptr %4) #24
  call void @llvm.lifetime.end.p0(i64 8, ptr %3) #24
  ret i64 %15
}

; Function Attrs: nounwind sspstrong uwtable
define internal i32 @get_afamily(ptr noundef %0, i32 noundef %1) #0 {
  %3 = alloca i32, align 4
  %4 = alloca ptr, align 8
  %5 = alloca i32, align 4
  store ptr %0, ptr %4, align 8, !tbaa !29
  store i32 %1, ptr %5, align 4, !tbaa !27
  %6 = load ptr, ptr %4, align 8, !tbaa !29
  %7 = getelementptr inbounds nuw %struct.sockaddr, ptr %6, i32 0, i32 0
  %8 = getelementptr inbounds nuw i8, ptr %7, i64 2
  %9 = load ptr, ptr %4, align 8, !tbaa !29
  %10 = ptrtoint ptr %8 to i64
  %11 = ptrtoint ptr %9 to i64
  %12 = sub i64 %10, %11
  %13 = trunc i64 %12 to i32
  %14 = load i32, ptr %5, align 4, !tbaa !27
  %15 = icmp ule i32 %13, %14
  br i1 %15, label %16, label %21

16:                                               ; preds = %2
  %17 = load ptr, ptr %4, align 8, !tbaa !29
  %18 = getelementptr inbounds nuw %struct.sockaddr, ptr %17, i32 0, i32 0
  %19 = load i16, ptr %18, align 2, !tbaa !96
  %20 = zext i16 %19 to i32
  store i32 %20, ptr %3, align 4
  br label %22

21:                                               ; preds = %2
  store i32 0, ptr %3, align 4
  br label %22

22:                                               ; preds = %21, %16
  %23 = load i32, ptr %3, align 4
  ret i32 %23
}

; Function Attrs: inlinehint nounwind sspstrong uwtable
define internal ptr @check_addrinfo(i64 noundef %0) #5 {
  %2 = alloca i64, align 8
  store i64 %0, ptr %2, align 8, !tbaa !31
  %3 = load i64, ptr %2, align 8, !tbaa !31
  %4 = call ptr @rb_check_typeddata(i64 noundef %3, ptr noundef @addrinfo_type)
  ret ptr %4
}

; Function Attrs: inlinehint nounwind sspstrong willreturn memory(read) uwtable
define available_externally i32 @atoi(ptr noundef nonnull %0) #13 {
  %2 = alloca ptr, align 8
  store ptr %0, ptr %2, align 8, !tbaa !30
  %3 = load ptr, ptr %2, align 8, !tbaa !30
  %4 = call i64 @strtol(ptr noundef %3, ptr noundef null, i32 noundef 10) #24
  %5 = trunc i64 %4 to i32
  ret i32 %5
}

; Function Attrs: inlinehint nounwind sspstrong uwtable
define internal i64 @rb_int2num_inline(i32 noundef %0) #5 {
  %2 = alloca i64, align 8
  %3 = alloca i32, align 4
  store i32 %0, ptr %3, align 4, !tbaa !27
  %4 = load i32, ptr %3, align 4, !tbaa !27
  %5 = sext i32 %4 to i64
  %6 = icmp slt i64 %5, 4611686018427387904
  br i1 %6, label %7, label %15

7:                                                ; preds = %1
  %8 = load i32, ptr %3, align 4, !tbaa !27
  %9 = sext i32 %8 to i64
  %10 = icmp sge i64 %9, -4611686018427387904
  br i1 %10, label %11, label %15

11:                                               ; preds = %7
  %12 = load i32, ptr %3, align 4, !tbaa !27
  %13 = sext i32 %12 to i64
  %14 = call i64 @RB_INT2FIX(i64 noundef %13) #28
  store i64 %14, ptr %2, align 8
  br label %19

15:                                               ; preds = %7, %1
  %16 = load i32, ptr %3, align 4, !tbaa !27
  %17 = sext i32 %16 to i64
  %18 = call i64 @rb_int2big(i64 noundef %17)
  store i64 %18, ptr %2, align 8
  br label %19

19:                                               ; preds = %15, %11
  %20 = load i64, ptr %2, align 8
  ret i64 %20
}

; Function Attrs: nounwind sspstrong uwtable
define internal i32 @ai_get_afamily(ptr noundef %0) #0 {
  %2 = alloca ptr, align 8
  store ptr %0, ptr %2, align 8, !tbaa !26
  %3 = load ptr, ptr %2, align 8, !tbaa !26
  %4 = getelementptr inbounds nuw %struct.rb_addrinfo_t, ptr %3, i32 0, i32 6
  %5 = load ptr, ptr %2, align 8, !tbaa !26
  %6 = getelementptr inbounds nuw %struct.rb_addrinfo_t, ptr %5, i32 0, i32 5
  %7 = load i32, ptr %6, align 4, !tbaa !126
  %8 = call i32 @get_afamily(ptr noundef %4, i32 noundef %7)
  ret i32 %8
}

; Function Attrs: nounwind sspstrong uwtable
define internal ptr @get_addrinfo(i64 noundef %0) #0 {
  %2 = alloca i64, align 8
  %3 = alloca ptr, align 8
  store i64 %0, ptr %2, align 8, !tbaa !31
  call void @llvm.lifetime.start.p0(i64 8, ptr %3) #24
  %4 = load i64, ptr %2, align 8, !tbaa !31
  %5 = call ptr @check_addrinfo(i64 noundef %4)
  store ptr %5, ptr %3, align 8, !tbaa !26
  %6 = load ptr, ptr %3, align 8, !tbaa !26
  %7 = icmp ne ptr %6, null
  br i1 %7, label %10, label %8

8:                                                ; preds = %1
  %9 = load i64, ptr @rb_eTypeError, align 8, !tbaa !31
  call void (i64, ptr, ...) @rb_raise(i64 noundef %9, ptr noundef @.str.101) #27
  unreachable

10:                                               ; preds = %1
  %11 = load ptr, ptr %3, align 8, !tbaa !26
  call void @llvm.lifetime.end.p0(i64 8, ptr %3) #24
  ret ptr %11
}

; Function Attrs: nounwind sspstrong uwtable
define internal i64 @addrinfo_ip_unpack(i64 noundef %0) #0 {
  %2 = alloca i64, align 8
  %3 = alloca ptr, align 8
  %4 = alloca i32, align 4
  %5 = alloca i64, align 8
  %6 = alloca i64, align 8
  %7 = alloca i64, align 8
  store i64 %0, ptr %2, align 8, !tbaa !31
  call void @llvm.lifetime.start.p0(i64 8, ptr %3) #24
  %8 = load i64, ptr %2, align 8, !tbaa !31
  %9 = call ptr @get_addrinfo(i64 noundef %8)
  store ptr %9, ptr %3, align 8, !tbaa !26
  call void @llvm.lifetime.start.p0(i64 4, ptr %4) #24
  %10 = load ptr, ptr %3, align 8, !tbaa !26
  %11 = call i32 @ai_get_afamily(ptr noundef %10)
  store i32 %11, ptr %4, align 4, !tbaa !27
  call void @llvm.lifetime.start.p0(i64 8, ptr %5) #24
  call void @llvm.lifetime.start.p0(i64 8, ptr %6) #24
  call void @llvm.lifetime.start.p0(i64 8, ptr %7) #24
  %12 = load i32, ptr %4, align 4, !tbaa !27
  %13 = icmp eq i32 %12, 2
  br i1 %13, label %19, label %14

14:                                               ; preds = %1
  %15 = load i32, ptr %4, align 4, !tbaa !27
  %16 = icmp eq i32 %15, 10
  br i1 %16, label %19, label %17

17:                                               ; preds = %14
  %18 = load i64, ptr @rb_eSocket, align 8, !tbaa !31
  call void (i64, ptr, ...) @rb_raise(i64 noundef %18, ptr noundef @.str.121) #27
  unreachable

19:                                               ; preds = %14, %1
  %20 = call i64 @rb_int2num_inline(i32 noundef 3)
  store i64 %20, ptr %5, align 8, !tbaa !31
  %21 = load i64, ptr %2, align 8, !tbaa !31
  %22 = call i64 @addrinfo_getnameinfo(i32 noundef 1, ptr noundef %5, i64 noundef %21)
  store i64 %22, ptr %6, align 8, !tbaa !31
  %23 = load i64, ptr %6, align 8, !tbaa !31
  %24 = call i64 @rb_ary_entry(i64 noundef %23, i64 noundef 1) #30
  store i64 %24, ptr %7, align 8, !tbaa !31
  %25 = load i64, ptr %6, align 8, !tbaa !31
  %26 = call ptr @rb_string_value_cstr(ptr noundef %7)
  %27 = call i32 @atoi(ptr noundef %26) #30
  %28 = call i64 @rb_int2num_inline(i32 noundef %27)
  call void @rb_ary_store(i64 noundef %25, i64 noundef 1, i64 noundef %28)
  %29 = load i64, ptr %6, align 8, !tbaa !31
  call void @llvm.lifetime.end.p0(i64 8, ptr %7) #24
  call void @llvm.lifetime.end.p0(i64 8, ptr %6) #24
  call void @llvm.lifetime.end.p0(i64 8, ptr %5) #24
  call void @llvm.lifetime.end.p0(i64 4, ptr %4) #24
  call void @llvm.lifetime.end.p0(i64 8, ptr %3) #24
  ret i64 %29
}