; Function Attrs: nounwind sspstrong uwtable
define internal noundef i64 @addrinfo_ip_unpack(i64 noundef %0) #0 {
  %2 = alloca i64, align 8
  %3 = alloca i64, align 8
  %4 = tail call ptr @rb_check_typeddata(i64 noundef %0, ptr noundef nonnull @addrinfo_type) #21
  %.not.i = icmp eq ptr %4, null
  br i1 %.not.i, label %5, label %get_addrinfo.exit

5:                                                ; preds = %1
  %6 = load i64, ptr @rb_eTypeError, align 8, !tbaa !35
  tail call void (i64, ptr, ...) @rb_raise(i64 noundef %6, ptr noundef nonnull @.str.101) #23
  unreachable

get_addrinfo.exit:                                ; preds = %1
  %7 = getelementptr inbounds nuw i8, ptr %4, i64 28
  %8 = load i32, ptr %7, align 4, !tbaa !118
  %9 = icmp ugt i32 %8, 1
  br i1 %9, label %ai_get_afamily.exit, label %ai_get_afamily.exit.thread

ai_get_afamily.exit.thread:                       ; preds = %get_addrinfo.exit
  call void @llvm.lifetime.start.p0(i64 8, ptr nonnull %2) #21
  call void @llvm.lifetime.start.p0(i64 8, ptr nonnull %3) #21
  br label %13

ai_get_afamily.exit:                              ; preds = %get_addrinfo.exit
  %10 = getelementptr inbounds nuw i8, ptr %4, i64 32
  %11 = load i16, ptr %10, align 2, !tbaa !91
  call void @llvm.lifetime.start.p0(i64 8, ptr nonnull %2) #21
  call void @llvm.lifetime.start.p0(i64 8, ptr nonnull %3) #21
  %12 = and i16 %11, -9
  %or.cond = icmp eq i16 %12, 2
  br i1 %or.cond, label %15, label %13

13:                                               ; preds = %ai_get_afamily.exit.thread, %ai_get_afamily.exit
  %14 = load i64, ptr @rb_eSocket, align 8, !tbaa !35
  tail call void (i64, ptr, ...) @rb_raise(i64 noundef %14, ptr noundef nonnull @.str.121) #23
  unreachable

15:                                               ; preds = %ai_get_afamily.exit
  store i64 7, ptr %2, align 8, !tbaa !35
  %16 = call i64 @addrinfo_getnameinfo(i32 noundef 1, ptr noundef nonnull %2, i64 noundef %0)
  %17 = tail call i64 @rb_ary_entry(i64 noundef %16, i64 noundef 1) #24
  store i64 %17, ptr %3, align 8, !tbaa !35
  %18 = call ptr @rb_string_value_cstr(ptr noundef nonnull %3) #21
  %19 = call i64 @strtol(ptr noundef nonnull captures(none) %18, ptr noundef null, i32 noundef 10) #21
  %sext = shl i64 %19, 32
  %20 = ashr exact i64 %sext, 31
  %21 = or disjoint i64 %20, 1
  call void @rb_ary_store(i64 noundef %16, i64 noundef 1, i64 noundef %21) #21
  call void @llvm.lifetime.end.p0(i64 8, ptr nonnull %3) #21
  call void @llvm.lifetime.end.p0(i64 8, ptr nonnull %2) #21
  ret i64 %16
}